target datalayout = "e-m:e-p270:32:32-p271:32:32-p272:64:64-i64:64-i128:128-f80:128-n8:16:32:64-S128"
target triple = "x86_64-pc-linux-gnu"

@H5_libinit_g = external global i8, align 1
@H5_libterm_g = external global i8, align 1
@H5T_NATIVE_SCHAR_g = external global i64, align 8

; Function Attrs: nounwind uwtable
define internal i32 @H5LT_read_dataset_numerical(i64 noundef %0, ptr noundef %1, i64 noundef %2, ptr noundef %3) #0 {
  %5 = alloca i32, align 4
  %6 = alloca i64, align 8
  %7 = alloca ptr, align 8
  %8 = alloca i64, align 8
  %9 = alloca ptr, align 8
  %10 = alloca i64, align 8
  %11 = alloca i32, align 4
  store i64 %0, ptr %6, align 8, !tbaa !3
  store ptr %1, ptr %7, align 8, !tbaa !7
  store i64 %2, ptr %8, align 8, !tbaa !3
  store ptr %3, ptr %9, align 8, !tbaa !14
  call void @llvm.lifetime.start.p0(i64 8, ptr %10) #11
  %12 = load ptr, ptr %7, align 8, !tbaa !7
  %13 = icmp eq ptr %12, null
  br i1 %13, label %14, label %15

14:                                               ; preds = %4
  store i32 -1, ptr %5, align 4
  store i32 1, ptr %11, align 4
  br label %37

15:                                               ; preds = %4
  %16 = load i64, ptr %6, align 8, !tbaa !3
  %17 = load ptr, ptr %7, align 8, !tbaa !7
  %18 = call i64 @H5Dopen2(i64 noundef %16, ptr noundef %17, i64 noundef 0)
  store i64 %18, ptr %10, align 8, !tbaa !3
  %19 = icmp slt i64 %18, 0
  br i1 %19, label %20, label %21

20:                                               ; preds = %15
  store i32 -1, ptr %5, align 4
  store i32 1, ptr %11, align 4
  br label %37

21:                                               ; preds = %15
  %22 = load i64, ptr %10, align 8, !tbaa !3
  %23 = load i64, ptr %8, align 8, !tbaa !3
  %24 = load ptr, ptr %9, align 8, !tbaa !14
  %25 = call i32 @H5Dread(i64 noundef %22, i64 noundef %23, i64 noundef 0, i64 noundef 0, i64 noundef 0, ptr noundef %24)
  %26 = icmp slt i32 %25, 0
  br i1 %26, label %27, label %28

27:                                               ; preds = %21
  br label %34

28:                                               ; preds = %21
  %29 = load i64, ptr %10, align 8, !tbaa !3
  %30 = call i32 @H5Dclose(i64 noundef %29)
  %31 = icmp ne i32 %30, 0
  br i1 %31, label %32, label %33

32:                                               ; preds = %28
  store i32 -1, ptr %5, align 4
  store i32 1, ptr %11, align 4
  br label %37

33:                                               ; preds = %28
  store i32 0, ptr %5, align 4
  store i32 1, ptr %11, align 4
  br label %37

34:                                               ; preds = %27
  %35 = load i64, ptr %10, align 8, !tbaa !3
  %36 = call i32 @H5Dclose(i64 noundef %35)
  store i32 -1, ptr %5, align 4
  store i32 1, ptr %11, align 4
  br label %37

37:                                               ; preds = %34, %33, %32, %20, %14
  call void @llvm.lifetime.end.p0(i64 8, ptr %10) #11
  %38 = load i32, ptr %5, align 4
  ret i32 %38
}

; Function Attrs: nounwind uwtable
define i32 @H5LTread_dataset_char(i64 noundef %0, ptr noundef %1, ptr noundef %2) #0 {
  %4 = alloca i64, align 8
  %5 = alloca ptr, align 8
  %6 = alloca ptr, align 8
  store i64 %0, ptr %4, align 8, !tbaa !3
  store ptr %1, ptr %5, align 8, !tbaa !7
  store ptr %2, ptr %6, align 8, !tbaa !7
  %7 = load i64, ptr %4, align 8, !tbaa !3
  %8 = load ptr, ptr %5, align 8, !tbaa !7
  %9 = load i8, ptr @H5_libinit_g, align 1, !tbaa !16, !range !18, !noundef !19
  %10 = trunc i8 %9 to i1
  br i1 %10, label %15, label %11

11:                                               ; preds = %3
  %12 = load i8, ptr @H5_libterm_g, align 1, !tbaa !16, !range !18, !noundef !19
  %13 = trunc i8 %12 to i1
  %14 = xor i1 %13, true
  br label %15

15:                                               ; preds = %11, %3
  %16 = phi i1 [ false, %3 ], [ %14, %11 ]
  %17 = xor i1 %16, true
  %18 = xor i1 %17, true
  %19 = zext i1 %18 to i32
  %20 = sext i32 %19 to i64
  %21 = call i64 @llvm.expect.i64(i64 %20, i64 0)
  %22 = icmp ne i64 %21, 0
  br i1 %22, label %23, label %25

23:                                               ; preds = %15
  %24 = call i32 @H5open()
  br label %26

25:                                               ; preds = %15
  br label %26

26:                                               ; preds = %25, %23
  %27 = load i64, ptr @H5T_NATIVE_SCHAR_g, align 8, !tbaa !3
  %28 = load ptr, ptr %6, align 8, !tbaa !7
  %29 = call i32 @H5LT_read_dataset_numerical(i64 noundef %7, ptr noundef %8, i64 noundef %27, ptr noundef %28)
  ret i32 %29
}